; Function Attrs: mustprogress nofree norecurse nosync nounwind willreturn memory(read, inaccessiblemem: none) uwtable
define hidden range(i32 -10, 2) i32 @zip_entry_isdir(ptr noundef readonly %zip) local_unnamed_addr #17 {
entry:
  %tobool.not = icmp eq ptr %zip, null
  br i1 %tobool.not, label %return, label %if.end

if.end:                                           ; preds = %entry
  %entry1 = getelementptr inbounds nuw i8, ptr %zip, i64 120
  %0 = load i32, ptr %entry1, align 8
  %cmp = icmp slt i32 %0, 0
  br i1 %cmp, label %return, label %lor.lhs.false.i.i

lor.lhs.false.i.i:                                ; preds = %if.end
  %m_pState.i.i = getelementptr inbounds nuw i8, ptr %zip, i64 104
  %1 = load ptr, ptr %m_pState.i.i, align 8
  %tobool1.i.not.i = icmp eq ptr %1, null
  br i1 %tobool1.i.not.i, label %return, label %lor.lhs.false2.i.i

lor.lhs.false2.i.i:                               ; preds = %lor.lhs.false.i.i
  %m_total_files.i.i = getelementptr inbounds nuw i8, ptr %zip, i64 16
  %2 = load i32, ptr %m_total_files.i.i, align 8
  %cmp.i.not.i = icmp ult i32 %0, %2
  br i1 %cmp.i.not.i, label %lor.lhs.false3.i.i, label %return

lor.lhs.false3.i.i:                               ; preds = %lor.lhs.false2.i.i
  %m_zip_mode.i.i = getelementptr inbounds nuw i8, ptr %zip, i64 20
  %3 = load i32, ptr %m_zip_mode.i.i, align 4
  %cmp4.i.not.i = icmp eq i32 %3, 1
  br i1 %cmp4.i.not.i, label %mz_zip_reader_get_cdh.exit.i, label %return

mz_zip_reader_get_cdh.exit.i:                     ; preds = %lor.lhs.false3.i.i
  %4 = load ptr, ptr %1, align 8
  %m_central_dir_offsets.i.i = getelementptr inbounds nuw i8, ptr %1, i64 32
  %5 = load ptr, ptr %m_central_dir_offsets.i.i, align 8
  %idxprom.i.i = zext nneg i32 %0 to i64
  %arrayidx.i.i = getelementptr inbounds nuw i32, ptr %5, i64 %idxprom.i.i
  %6 = load i32, ptr %arrayidx.i.i, align 4
  %idxprom8.i.i = zext i32 %6 to i64
  %arrayidx9.i.i = getelementptr inbounds nuw i8, ptr %4, i64 %idxprom8.i.i
  %tobool.not.i = icmp eq ptr %4, null
  br i1 %tobool.not.i, label %return, label %if.end.i

if.end.i:                                         ; preds = %mz_zip_reader_get_cdh.exit.i
  %add.ptr.i = getelementptr inbounds nuw i8, ptr %arrayidx9.i.i, i64 28
  %7 = load i16, ptr %add.ptr.i, align 2
  %tobool1.not.i = icmp eq i16 %7, 0
  br i1 %tobool1.not.i, label %if.end10.i, label %if.then2.i

if.then2.i:                                       ; preds = %if.end.i
  %add.ptr3.i = getelementptr inbounds nuw i8, ptr %arrayidx9.i.i, i64 46
  %idx.ext.i = zext i16 %7 to i64
  %add.ptr4.i = getelementptr inbounds nuw i8, ptr %add.ptr3.i, i64 %idx.ext.i
  %add.ptr5.i = getelementptr inbounds i8, ptr %add.ptr4.i, i64 -1
  %8 = load i8, ptr %add.ptr5.i, align 1
  %cmp.i = icmp eq i8 %8, 47
  br i1 %cmp.i, label %return, label %if.end10.i

if.end10.i:                                       ; preds = %if.then2.i, %if.end.i
  %add.ptr11.i = getelementptr inbounds nuw i8, ptr %arrayidx9.i.i, i64 38
  %9 = load i32, ptr %add.ptr11.i, align 4
  %and.i = lshr i32 %9, 4
  %and.lobit.i = and i32 %and.i, 1
  br label %return

return:                                           ; preds = %if.end10.i, %if.then2.i, %mz_zip_reader_get_cdh.exit.i, %lor.lhs.false3.i.i, %lor.lhs.false2.i.i, %lor.lhs.false.i.i, %if.end, %entry
  %retval.0 = phi i32 [ -1, %entry ], [ -10, %if.end ], [ 0, %mz_zip_reader_get_cdh.exit.i ], [ 1, %if.then2.i ], [ %and.lobit.i, %if.end10.i ], [ 0, %lor.lhs.false3.i.i ], [ 0, %lor.lhs.false2.i.i ], [ 0, %lor.lhs.false.i.i ]
  ret i32 %retval.0
}